libsysstat-qt5.so.0:_ZN7SysStat7CpuStat11qt_metacallEN11QMetaObject4CallEiPPv
libsysstat-qt5.so.0:_ZN7SysStat7CpuStat11qt_metacastEPKc
libsysstat-qt5.so.0:_ZN7SysStat7CpuStat13setMonitoringENS0_10MonitoringE
libsysstat-qt5.so.0:_ZN7SysStat7CpuStat13updateSourcesEv
libsysstat-qt5.so.0:_ZN7SysStat7CpuStat17monitoringChangedENS0_10MonitoringE
libsysstat-qt5.so.0:_ZN7SysStat7CpuStat6updateEffff
libsysstat-qt5.so.0:_ZN7SysStat7CpuStat6updateEfffffj
libsysstat-qt5.so.0:_ZN7SysStat7CpuStat6updateEj
libsysstat-qt5.so.0:_ZN7SysStat7CpuStatC1EP7QObject
libsysstat-qt5.so.0:_ZN7SysStat7CpuStatC2EP7QObject
libsysstat-qt5.so.0:_ZN7SysStat7CpuStatD0Ev
libsysstat-qt5.so.0:_ZN7SysStat7CpuStatD1Ev
libsysstat-qt5.so.0:_ZN7SysStat7CpuStatD2Ev
libsysstat-qt5.so.0:_ZN7SysStat7MemStat10swapUpdateEf
libsysstat-qt5.so.0:_ZN7SysStat7MemStat11qt_metacallEN11QMetaObject4CallEiPPv
libsysstat-qt5.so.0:_ZN7SysStat7MemStat11qt_metacastEPKc
libsysstat-qt5.so.0:_ZN7SysStat7MemStat12memoryUpdateEfff
libsysstat-qt5.so.0:_ZN7SysStat7MemStatC1EP7QObject
libsysstat-qt5.so.0:_ZN7SysStat7MemStatC2EP7QObject
libsysstat-qt5.so.0:_ZN7SysStat7MemStatD0Ev
libsysstat-qt5.so.0:_ZN7SysStat7MemStatD1Ev
libsysstat-qt5.so.0:_ZN7SysStat7MemStatD2Ev
libsysstat-qt5.so.0:_ZN7SysStat7NetStat11qt_metacallEN11QMetaObject4CallEiPPv
libsysstat-qt5.so.0:_ZN7SysStat7NetStat11qt_metacastEPKc
libsysstat-qt5.so.0:_ZN7SysStat7NetStat6updateEjj
libsysstat-qt5.so.0:_ZN7SysStat7NetStatC1EP7QObject
libsysstat-qt5.so.0:_ZN7SysStat7NetStatC2EP7QObject
libsysstat-qt5.so.0:_ZN7SysStat7NetStatD0Ev
libsysstat-qt5.so.0:_ZN7SysStat7NetStatD1Ev
libsysstat-qt5.so.0:_ZN7SysStat7NetStatD2Ev
libsysstat-qt5.so.0:_ZN7SysStat8BaseStat11qt_metacallEN11QMetaObject4CallEiPPv
libsysstat-qt5.so.0:_ZN7SysStat8BaseStat11qt_metacastEPKc
libsysstat-qt5.so.0:_ZN7SysStat8BaseStat12stopUpdatingEv
libsysstat-qt5.so.0:_ZN7SysStat8BaseStat17setUpdateIntervalEi
libsysstat-qt5.so.0:_ZN7SysStat8BaseStat18setMonitoredSourceERK7QString
libsysstat-qt5.so.0:_ZN7SysStat8BaseStat20monitorDefaultSourceEv
libsysstat-qt5.so.0:_ZN7SysStat8BaseStat21updateIntervalChangedEi
libsysstat-qt5.so.0:_ZN7SysStat8BaseStat22monitoredSourceChangedE7QString
libsysstat-qt5.so.0:_ZN7SysStat8BaseStatC1EP7QObject
libsysstat-qt5.so.0:_ZN7SysStat8BaseStatC2EP7QObject
libsysstat-qt5.so.0:_ZN7SysStat8BaseStatD0Ev
libsysstat-qt5.so.0:_ZN7SysStat8BaseStatD1Ev
libsysstat-qt5.so.0:_ZN7SysStat8BaseStatD2Ev
libsysstat-qt5.so.0:_ZNK7SysStat7CpuStat10metaObjectEv
libsysstat-qt5.so.0:_ZNK7SysStat7CpuStat10monitoringEv
libsysstat-qt5.so.0:_ZNK7SysStat7MemStat10metaObjectEv
libsysstat-qt5.so.0:_ZNK7SysStat7NetStat10metaObjectEv
libsysstat-qt5.so.0:_ZNK7SysStat8BaseStat10metaObjectEv
libsysstat-qt5.so.0:_ZNK7SysStat8BaseStat14updateIntervalEv
libsysstat-qt5.so.0:_ZNK7SysStat8BaseStat15monitoredSourceEv
libsysstat-qt5.so.0:_ZNK7SysStat8BaseStat7sourcesEv
